; Function Attrs: mustprogress uwtable
define hidden noundef i32 @_ZN2bv6solver11get_bv_sizeEPN3euf5enodeE(ptr noundef nonnull readnone align 8 captures(none) dereferenceable(640) %0, ptr noundef readonly captures(none) %1) local_unnamed_addr #3 align 2 {
  %3 = load ptr, ptr %1, align 8, !tbaa !80
  %4 = tail call noundef ptr @_ZNK4expr8get_sortEv(ptr noundef nonnull align 4 dereferenceable(16) %3)
  %5 = getelementptr inbounds nuw i8, ptr %4, i64 24
  %6 = load ptr, ptr %5, align 8, !tbaa !96
  %7 = getelementptr inbounds nuw i8, ptr %6, i64 8
  %8 = load ptr, ptr %7, align 8, !tbaa !114
  %9 = getelementptr inbounds nuw i8, ptr %8, i64 8
  %10 = load i8, ptr %9, align 8, !tbaa !115
  %.not.i.i.i.i.i = icmp eq i8 %10, 0
  br i1 %.not.i.i.i.i.i, label %_ZNK7bv_util11get_bv_sizeEPK4expr.exit, label %11

11:                                               ; preds = %2
  %12 = tail call ptr @__cxa_allocate_exception(i64 16) #25
  store ptr getelementptr inbounds nuw inrange(-16, 24) (i8, ptr @_ZTVSt18bad_variant_access, i64 16), ptr %12, align 8, !tbaa !42
  %13 = getelementptr inbounds nuw i8, ptr %12, i64 8
  store ptr @.str.15, ptr %13, align 8, !tbaa !117
  tail call void @__cxa_throw(ptr nonnull %12, ptr nonnull @_ZTISt18bad_variant_access, ptr nonnull @_ZNSt9exceptionD2Ev) #27
  unreachable

_ZNK7bv_util11get_bv_sizeEPK4expr.exit:           ; preds = %2
  %14 = load i32, ptr %8, align 4, !tbaa !47
  ret i32 %14
}